; Function Attrs: mustprogress uwtable
define void @_ZNK4base8FilePath12AsUTF8UnsafeB5cxx11Ev(ptr dead_on_unwind noalias writable sret(%"class.std::__cxx11::basic_string") align 8 %0, ptr noundef nonnull readonly align 8 captures(none) dereferenceable(32) %1) local_unnamed_addr #1 align 2 personality ptr @__gxx_personality_v0 {
  %3 = alloca %"class.std::__cxx11::basic_string.10", align 8
  %4 = alloca %"class.base::BasicStringPiece", align 8
  call void @llvm.lifetime.start.p0(i64 32, ptr nonnull %3) #22
  call void @llvm.lifetime.start.p0(i64 16, ptr nonnull %4) #22
  %5 = load ptr, ptr %1, align 8, !tbaa !13
  store ptr %5, ptr %4, align 8, !tbaa !54
  %6 = getelementptr inbounds nuw i8, ptr %4, i64 8
  %7 = getelementptr inbounds nuw i8, ptr %1, i64 8
  %8 = load i64, ptr %7, align 8, !tbaa !9
  store i64 %8, ptr %6, align 8, !tbaa !37
  call void @_ZN4base17SysNativeMBToWideERKNS_16BasicStringPieceINSt7__cxx1112basic_stringIcSt11char_traitsIcESaIcEEEEE(ptr dead_on_unwind nonnull writable sret(%"class.std::__cxx11::basic_string.10") align 8 %3, ptr noundef nonnull align 8 dereferenceable(16) %4)
  invoke void @_ZN4base10WideToUTF8ERKNSt7__cxx1112basic_stringIwSt11char_traitsIwESaIwEEE(ptr dead_on_unwind writable sret(%"class.std::__cxx11::basic_string") align 8 %0, ptr noundef nonnull align 8 dereferenceable(32) %3)
          to label %9 unwind label %16

9:                                                ; preds = %2
  %10 = load ptr, ptr %3, align 8, !tbaa !55
  %11 = getelementptr inbounds nuw i8, ptr %3, i64 16
  %12 = icmp eq ptr %10, %11
  br i1 %12, label %_ZNKSt7__cxx1112basic_stringIwSt11char_traitsIwESaIwEE11_M_is_localEv.exit.thread.i.i, label %_ZNKSt7__cxx1112basic_stringIwSt11char_traitsIwESaIwEE11_M_is_localEv.exit.i.i

_ZNKSt7__cxx1112basic_stringIwSt11char_traitsIwESaIwEE11_M_is_localEv.exit.thread.i.i: ; preds = %9
  %13 = getelementptr inbounds nuw i8, ptr %3, i64 8
  %14 = load i64, ptr %13, align 8, !tbaa !59
  %15 = icmp ult i64 %14, 4
  call void @llvm.assume(i1 %15)
  br label %_ZNSt7__cxx1112basic_stringIwSt11char_traitsIwESaIwEED2Ev.exit

_ZNKSt7__cxx1112basic_stringIwSt11char_traitsIwESaIwEE11_M_is_localEv.exit.i.i: ; preds = %9
  call void @_ZdlPv(ptr noundef %10) #24
  br label %_ZNSt7__cxx1112basic_stringIwSt11char_traitsIwESaIwEED2Ev.exit

_ZNSt7__cxx1112basic_stringIwSt11char_traitsIwESaIwEED2Ev.exit: ; preds = %_ZNKSt7__cxx1112basic_stringIwSt11char_traitsIwESaIwEE11_M_is_localEv.exit.thread.i.i, %_ZNKSt7__cxx1112basic_stringIwSt11char_traitsIwESaIwEE11_M_is_localEv.exit.i.i
  call void @llvm.lifetime.end.p0(i64 16, ptr nonnull %4) #22
  call void @llvm.lifetime.end.p0(i64 32, ptr nonnull %3) #22
  ret void

16:                                               ; preds = %2
  %17 = landingpad { ptr, i32 }
          cleanup
  %18 = load ptr, ptr %3, align 8, !tbaa !55
  %19 = getelementptr inbounds nuw i8, ptr %3, i64 16
  %20 = icmp eq ptr %18, %19
  br i1 %20, label %_ZNKSt7__cxx1112basic_stringIwSt11char_traitsIwESaIwEE11_M_is_localEv.exit.thread.i.i3, label %_ZNKSt7__cxx1112basic_stringIwSt11char_traitsIwESaIwEE11_M_is_localEv.exit.i.i2

_ZNKSt7__cxx1112basic_stringIwSt11char_traitsIwESaIwEE11_M_is_localEv.exit.thread.i.i3: ; preds = %16
  %21 = getelementptr inbounds nuw i8, ptr %3, i64 8
  %22 = load i64, ptr %21, align 8, !tbaa !59
  %23 = icmp ult i64 %22, 4
  call void @llvm.assume(i1 %23)
  br label %_ZNSt7__cxx1112basic_stringIwSt11char_traitsIwESaIwEED2Ev.exit4

_ZNKSt7__cxx1112basic_stringIwSt11char_traitsIwESaIwEE11_M_is_localEv.exit.i.i2: ; preds = %16
  call void @_ZdlPv(ptr noundef %18) #24
  br label %_ZNSt7__cxx1112basic_stringIwSt11char_traitsIwESaIwEED2Ev.exit4

_ZNSt7__cxx1112basic_stringIwSt11char_traitsIwESaIwEED2Ev.exit4: ; preds = %_ZNKSt7__cxx1112basic_stringIwSt11char_traitsIwESaIwEE11_M_is_localEv.exit.thread.i.i3, %_ZNKSt7__cxx1112basic_stringIwSt11char_traitsIwESaIwEE11_M_is_localEv.exit.i.i2
  call void @llvm.lifetime.end.p0(i64 16, ptr nonnull %4) #22
  call void @llvm.lifetime.end.p0(i64 32, ptr nonnull %3) #22
  resume { ptr, i32 } %17
}